target datalayout = "e-m:e-p270:32:32-p271:32:32-p272:64:64-i64:64-i128:128-f80:128-n8:16:32:64-S128"
target triple = "x86_64-pc-linux-gnu"

%"class.std::__cxx11::basic_string" = type { %"struct.std::__cxx11::basic_string<char>::_Alloc_hider", i64, %union.anon }
%"struct.std::__cxx11::basic_string<char>::_Alloc_hider" = type { ptr }
%union.anon = type { i64, [8 x i8] }
%class.cmExportBuildFileGenerator = type { %class.cmExportFileGenerator.base, %"class.std::vector.14", ptr, %"class.std::vector.19", ptr, %"class.std::__cxx11::basic_string" }
%class.cmExportFileGenerator.base = type <{ ptr, %"class.std::__cxx11::basic_string", i8, [7 x i8], %"class.std::vector", %"class.std::__cxx11::basic_string", %"class.std::__cxx11::basic_string", %"class.std::__cxx11::basic_string", %"class.std::__cxx11::basic_string", i8, [7 x i8], %"class.std::set", %"class.std::vector", %"class.std::set.6", i32, i32, i32, i8 }>
%"class.std::set" = type { %"class.std::_Rb_tree" }
%"class.std::_Rb_tree" = type { %"struct.std::_Rb_tree<cmGeneratorTarget *, cmGeneratorTarget *, std::_Identity<cmGeneratorTarget *>, std::less<cmGeneratorTarget *>>::_Rb_tree_impl" }
%"struct.std::_Rb_tree<cmGeneratorTarget *, cmGeneratorTarget *, std::_Identity<cmGeneratorTarget *>, std::less<cmGeneratorTarget *>>::_Rb_tree_impl" = type { %"struct.std::_Rb_tree_key_compare", %"struct.std::_Rb_tree_header" }
%"struct.std::_Rb_tree_key_compare" = type { %"struct.std::less" }
%"struct.std::less" = type { i8 }
%"struct.std::_Rb_tree_header" = type { %"struct.std::_Rb_tree_node_base", i64 }
%"struct.std::_Rb_tree_node_base" = type { i32, ptr, ptr, ptr }
%"class.std::vector" = type { %"struct.std::_Vector_base" }
%"struct.std::_Vector_base" = type { %"struct.std::_Vector_base<std::__cxx11::basic_string<char>, std::allocator<std::__cxx11::basic_string<char>>>::_Vector_impl" }
%"struct.std::_Vector_base<std::__cxx11::basic_string<char>, std::allocator<std::__cxx11::basic_string<char>>>::_Vector_impl" = type { %"struct.std::_Vector_base<std::__cxx11::basic_string<char>, std::allocator<std::__cxx11::basic_string<char>>>::_Vector_impl_data" }
%"struct.std::_Vector_base<std::__cxx11::basic_string<char>, std::allocator<std::__cxx11::basic_string<char>>>::_Vector_impl_data" = type { ptr, ptr, ptr }
%"class.std::set.6" = type { %"class.std::_Rb_tree.7" }
%"class.std::_Rb_tree.7" = type { %"struct.std::_Rb_tree<const cmGeneratorTarget *, const cmGeneratorTarget *, std::_Identity<const cmGeneratorTarget *>, std::less<const cmGeneratorTarget *>>::_Rb_tree_impl" }
%"struct.std::_Rb_tree<const cmGeneratorTarget *, const cmGeneratorTarget *, std::_Identity<const cmGeneratorTarget *>, std::less<const cmGeneratorTarget *>>::_Rb_tree_impl" = type { %"struct.std::_Rb_tree_key_compare.11", %"struct.std::_Rb_tree_header" }
%"struct.std::_Rb_tree_key_compare.11" = type { %"struct.std::less.12" }
%"struct.std::less.12" = type { i8 }
%"class.std::vector.14" = type { %"struct.std::_Vector_base.15" }
%"struct.std::_Vector_base.15" = type { %"struct.std::_Vector_base<cmExportBuildFileGenerator::TargetExport, std::allocator<cmExportBuildFileGenerator::TargetExport>>::_Vector_impl" }
%"struct.std::_Vector_base<cmExportBuildFileGenerator::TargetExport, std::allocator<cmExportBuildFileGenerator::TargetExport>>::_Vector_impl" = type { %"struct.std::_Vector_base<cmExportBuildFileGenerator::TargetExport, std::allocator<cmExportBuildFileGenerator::TargetExport>>::_Vector_impl_data" }
%"struct.std::_Vector_base<cmExportBuildFileGenerator::TargetExport, std::allocator<cmExportBuildFileGenerator::TargetExport>>::_Vector_impl_data" = type { ptr, ptr, ptr }
%"class.std::vector.19" = type { %"struct.std::_Vector_base.20" }
%"struct.std::_Vector_base.20" = type { %"struct.std::_Vector_base<cmExportBuildFileGenerator::TargetExportPrivate, std::allocator<cmExportBuildFileGenerator::TargetExportPrivate>>::_Vector_impl" }
%"struct.std::_Vector_base<cmExportBuildFileGenerator::TargetExportPrivate, std::allocator<cmExportBuildFileGenerator::TargetExportPrivate>>::_Vector_impl" = type { %"struct.std::_Vector_base<cmExportBuildFileGenerator::TargetExportPrivate, std::allocator<cmExportBuildFileGenerator::TargetExportPrivate>>::_Vector_impl_data" }
%"struct.std::_Vector_base<cmExportBuildFileGenerator::TargetExportPrivate, std::allocator<cmExportBuildFileGenerator::TargetExportPrivate>>::_Vector_impl_data" = type { ptr, ptr, ptr }

; Function Attrs: mustprogress nounwind uwtable
define linkonce_odr dso_local void @_ZNSt15__new_allocatorIN26cmExportBuildFileGenerator19TargetExportPrivateEEC2Ev(ptr noundef nonnull align 1 dereferenceable(1) %0) unnamed_addr #5 comdat align 2 {
  %2 = alloca ptr, align 8
  store ptr %0, ptr %2, align 8
  ret void
}

; Function Attrs: mustprogress nounwind uwtable
define linkonce_odr dso_local void @_ZNSt15__new_allocatorIN26cmExportBuildFileGenerator12TargetExportEEC2Ev(ptr noundef nonnull align 1 dereferenceable(1) %0) unnamed_addr #5 comdat align 2 {
  %2 = alloca ptr, align 8
  store ptr %0, ptr %2, align 8
  ret void
}

; Function Attrs: mustprogress nounwind uwtable
define linkonce_odr dso_local void @_ZNSt12_Vector_baseIN26cmExportBuildFileGenerator19TargetExportPrivateESaIS1_EE17_Vector_impl_dataC2Ev(ptr noundef nonnull align 8 dereferenceable(24) %0) unnamed_addr #5 comdat align 2 {
  %2 = alloca ptr, align 8
  store ptr %0, ptr %2, align 8
  %3 = load ptr, ptr %2, align 8
  %4 = getelementptr inbounds %"struct.std::_Vector_base<cmExportBuildFileGenerator::TargetExportPrivate, std::allocator<cmExportBuildFileGenerator::TargetExportPrivate>>::_Vector_impl_data", ptr %3, i32 0, i32 0
  store ptr null, ptr %4, align 8
  %5 = getelementptr inbounds %"struct.std::_Vector_base<cmExportBuildFileGenerator::TargetExportPrivate, std::allocator<cmExportBuildFileGenerator::TargetExportPrivate>>::_Vector_impl_data", ptr %3, i32 0, i32 1
  store ptr null, ptr %5, align 8
  %6 = getelementptr inbounds %"struct.std::_Vector_base<cmExportBuildFileGenerator::TargetExportPrivate, std::allocator<cmExportBuildFileGenerator::TargetExportPrivate>>::_Vector_impl_data", ptr %3, i32 0, i32 2
  store ptr null, ptr %6, align 8
  ret void
}

; Function Attrs: mustprogress nounwind uwtable
define linkonce_odr dso_local void @_ZNSaIN26cmExportBuildFileGenerator19TargetExportPrivateEEC2Ev(ptr noundef nonnull align 1 dereferenceable(1) %0) unnamed_addr #5 comdat align 2 {
  %2 = alloca ptr, align 8
  store ptr %0, ptr %2, align 8
  %3 = load ptr, ptr %2, align 8
  call void @_ZNSt15__new_allocatorIN26cmExportBuildFileGenerator19TargetExportPrivateEEC2Ev(ptr noundef nonnull align 1 dereferenceable(1) %3) #3
  ret void
}

; Function Attrs: mustprogress nounwind uwtable
define linkonce_odr dso_local void @_ZNSt12_Vector_baseIN26cmExportBuildFileGenerator12TargetExportESaIS1_EE17_Vector_impl_dataC2Ev(ptr noundef nonnull align 8 dereferenceable(24) %0) unnamed_addr #5 comdat align 2 {
  %2 = alloca ptr, align 8
  store ptr %0, ptr %2, align 8
  %3 = load ptr, ptr %2, align 8
  %4 = getelementptr inbounds %"struct.std::_Vector_base<cmExportBuildFileGenerator::TargetExport, std::allocator<cmExportBuildFileGenerator::TargetExport>>::_Vector_impl_data", ptr %3, i32 0, i32 0
  store ptr null, ptr %4, align 8
  %5 = getelementptr inbounds %"struct.std::_Vector_base<cmExportBuildFileGenerator::TargetExport, std::allocator<cmExportBuildFileGenerator::TargetExport>>::_Vector_impl_data", ptr %3, i32 0, i32 1
  store ptr null, ptr %5, align 8
  %6 = getelementptr inbounds %"struct.std::_Vector_base<cmExportBuildFileGenerator::TargetExport, std::allocator<cmExportBuildFileGenerator::TargetExport>>::_Vector_impl_data", ptr %3, i32 0, i32 2
  store ptr null, ptr %6, align 8
  ret void
}

; Function Attrs: mustprogress nounwind uwtable
define linkonce_odr dso_local void @_ZNSaIN26cmExportBuildFileGenerator12TargetExportEEC2Ev(ptr noundef nonnull align 1 dereferenceable(1) %0) unnamed_addr #5 comdat align 2 {
  %2 = alloca ptr, align 8
  store ptr %0, ptr %2, align 8
  %3 = load ptr, ptr %2, align 8
  call void @_ZNSt15__new_allocatorIN26cmExportBuildFileGenerator12TargetExportEEC2Ev(ptr noundef nonnull align 1 dereferenceable(1) %3) #3
  ret void
}

; Function Attrs: mustprogress nounwind uwtable
define linkonce_odr dso_local void @_ZNSt12_Vector_baseIN26cmExportBuildFileGenerator19TargetExportPrivateESaIS1_EE12_Vector_implC2Ev(ptr noundef nonnull align 8 dereferenceable(24) %0) unnamed_addr #5 comdat align 2 {
  %2 = alloca ptr, align 8
  store ptr %0, ptr %2, align 8
  %3 = load ptr, ptr %2, align 8
  call void @_ZNSaIN26cmExportBuildFileGenerator19TargetExportPrivateEEC2Ev(ptr noundef nonnull align 1 dereferenceable(1) %3) #3
  call void @_ZNSt12_Vector_baseIN26cmExportBuildFileGenerator19TargetExportPrivateESaIS1_EE17_Vector_impl_dataC2Ev(ptr noundef nonnull align 8 dereferenceable(24) %3) #3
  ret void
}

; Function Attrs: mustprogress nounwind uwtable
define linkonce_odr dso_local void @_ZNSt12_Vector_baseIN26cmExportBuildFileGenerator12TargetExportESaIS1_EE12_Vector_implC2Ev(ptr noundef nonnull align 8 dereferenceable(24) %0) unnamed_addr #5 comdat align 2 {
  %2 = alloca ptr, align 8
  store ptr %0, ptr %2, align 8
  %3 = load ptr, ptr %2, align 8
  call void @_ZNSaIN26cmExportBuildFileGenerator12TargetExportEEC2Ev(ptr noundef nonnull align 1 dereferenceable(1) %3) #3
  call void @_ZNSt12_Vector_baseIN26cmExportBuildFileGenerator12TargetExportESaIS1_EE17_Vector_impl_dataC2Ev(ptr noundef nonnull align 8 dereferenceable(24) %3) #3
  ret void
}

; Function Attrs: mustprogress nounwind uwtable
define linkonce_odr dso_local void @_ZNSt12_Vector_baseIN26cmExportBuildFileGenerator19TargetExportPrivateESaIS1_EEC2Ev(ptr noundef nonnull align 8 dereferenceable(24) %0) unnamed_addr #5 comdat align 2 {
  %2 = alloca ptr, align 8
  store ptr %0, ptr %2, align 8
  %3 = load ptr, ptr %2, align 8
  %4 = getelementptr inbounds %"struct.std::_Vector_base.20", ptr %3, i32 0, i32 0
  call void @_ZNSt12_Vector_baseIN26cmExportBuildFileGenerator19TargetExportPrivateESaIS1_EE12_Vector_implC2Ev(ptr noundef nonnull align 8 dereferenceable(24) %4) #3
  ret void
}

; Function Attrs: mustprogress nounwind uwtable
define linkonce_odr dso_local void @_ZNSt12_Vector_baseIN26cmExportBuildFileGenerator12TargetExportESaIS1_EEC2Ev(ptr noundef nonnull align 8 dereferenceable(24) %0) unnamed_addr #5 comdat align 2 {
  %2 = alloca ptr, align 8
  store ptr %0, ptr %2, align 8
  %3 = load ptr, ptr %2, align 8
  %4 = getelementptr inbounds %"struct.std::_Vector_base.15", ptr %3, i32 0, i32 0
  call void @_ZNSt12_Vector_baseIN26cmExportBuildFileGenerator12TargetExportESaIS1_EE12_Vector_implC2Ev(ptr noundef nonnull align 8 dereferenceable(24) %4) #3
  ret void
}

; Function Attrs: mustprogress nounwind uwtable
define linkonce_odr dso_local void @_ZNSt6vectorIN26cmExportBuildFileGenerator19TargetExportPrivateESaIS1_EEC2Ev(ptr noundef nonnull align 8 dereferenceable(24) %0) unnamed_addr #5 comdat align 2 {
  %2 = alloca ptr, align 8
  store ptr %0, ptr %2, align 8
  %3 = load ptr, ptr %2, align 8
  call void @_ZNSt12_Vector_baseIN26cmExportBuildFileGenerator19TargetExportPrivateESaIS1_EEC2Ev(ptr noundef nonnull align 8 dereferenceable(24) %3) #3
  ret void
}

; Function Attrs: mustprogress nounwind uwtable
define linkonce_odr dso_local void @_ZNSt6vectorIN26cmExportBuildFileGenerator12TargetExportESaIS1_EEC2Ev(ptr noundef nonnull align 8 dereferenceable(24) %0) unnamed_addr #5 comdat align 2 {
  %2 = alloca ptr, align 8
  store ptr %0, ptr %2, align 8
  %3 = load ptr, ptr %2, align 8
  call void @_ZNSt12_Vector_baseIN26cmExportBuildFileGenerator12TargetExportESaIS1_EEC2Ev(ptr noundef nonnull align 8 dereferenceable(24) %3) #3
  ret void
}

; Function Attrs: mustprogress uwtable
define dso_local void @_ZN26cmExportBuildFileGeneratorC2Ev(ptr noundef nonnull align 8 dereferenceable(440) %0) unnamed_addr #4 align 2 {
  %2 = alloca ptr, align 8
  store ptr %0, ptr %2, align 8
  %3 = load ptr, ptr %2, align 8
  call void @_ZN21cmExportFileGeneratorC2Ev(ptr noundef nonnull align 8 dereferenceable(341) %3)
  store ptr getelementptr inbounds ({ [26 x ptr] }, ptr @_ZTV26cmExportBuildFileGenerator, i32 0, i32 0, i32 2), ptr %3, align 8
  %4 = getelementptr inbounds %class.cmExportBuildFileGenerator, ptr %3, i32 0, i32 1
  call void @_ZNSt6vectorIN26cmExportBuildFileGenerator12TargetExportESaIS1_EEC2Ev(ptr noundef nonnull align 8 dereferenceable(24) %4) #3
  %5 = getelementptr inbounds %class.cmExportBuildFileGenerator, ptr %3, i32 0, i32 3
  call void @_ZNSt6vectorIN26cmExportBuildFileGenerator19TargetExportPrivateESaIS1_EEC2Ev(ptr noundef nonnull align 8 dereferenceable(24) %5) #3
  %6 = getelementptr inbounds %class.cmExportBuildFileGenerator, ptr %3, i32 0, i32 5
  call void @_ZNSt7__cxx1112basic_stringIcSt11char_traitsIcESaIcEEC1Ev(ptr noundef nonnull align 8 dereferenceable(32) %6) #3
  %7 = getelementptr inbounds %class.cmExportBuildFileGenerator, ptr %3, i32 0, i32 4
  store ptr null, ptr %7, align 8
  %8 = getelementptr inbounds %class.cmExportBuildFileGenerator, ptr %3, i32 0, i32 2
  store ptr null, ptr %8, align 8
  ret void
}