; Function Attrs: mustprogress uwtable
define dso_local void @_ZN26cmExportBuildFileGeneratorC2Ev(ptr noundef nonnull align 8 dereferenceable(440) %0) unnamed_addr #3 align 2 {
  tail call void @_ZN21cmExportFileGeneratorC2Ev(ptr noundef nonnull align 8 dereferenceable(341) %0)
  store ptr getelementptr inbounds ({ [26 x ptr] }, ptr @_ZTV26cmExportBuildFileGenerator, i64 0, i32 0, i64 2), ptr %0, align 8
  %2 = getelementptr inbounds i8, ptr %0, i64 344
  tail call void @llvm.memset.p0.i64(ptr noundef nonnull align 8 dereferenceable(24) %2, i8 0, i64 24, i1 false)
  %3 = getelementptr inbounds i8, ptr %0, i64 376
  tail call void @llvm.memset.p0.i64(ptr noundef nonnull align 8 dereferenceable(24) %3, i8 0, i64 24, i1 false)
  %4 = getelementptr inbounds i8, ptr %0, i64 408
  tail call void @_ZNSt7__cxx1112basic_stringIcSt11char_traitsIcESaIcEEC1Ev(ptr noundef nonnull align 8 dereferenceable(32) %4) #17
  %5 = getelementptr inbounds i8, ptr %0, i64 400
  store ptr null, ptr %5, align 8
  %6 = getelementptr inbounds i8, ptr %0, i64 368
  store ptr null, ptr %6, align 8
  ret void
}